SF:/home/nsm/code/deepbrain/superconfig/crates/superconfig/src/config_flags.rs
FN:165,_RNvNtNtCsjGPQoqpdV0f_11superconfig12config_flags5testss_18test_error_display
FN:151,_RNvNtNtCsjGPQoqpdV0f_11superconfig12config_flags5testss_22test_flag_combinations
FN:138,_RNvNtNtCsjGPQoqpdV0f_11superconfig12config_flags5testss_27test_runtime_flag_constants
FN:127,_RNvNtNtCsjGPQoqpdV0f_11superconfig12config_flags5testss_27test_startup_flag_constants
FN:171,_RNvNtNtCsjGPQoqpdV0f_11superconfig12config_flags5testss_28test_runtime_flag_validation
FN:200,_RNvNtNtCsjGPQoqpdV0f_11superconfig12config_flags5testss_28test_startup_flag_validation
FN:101,_RNvNtCsjGPQoqpdV0f_11superconfig12config_flags21is_valid_runtime_flag
FN:117,_RNvNtCsjGPQoqpdV0f_11superconfig12config_flags21is_valid_startup_flag
FNDA:1,_RNvNtNtCsjGPQoqpdV0f_11superconfig12config_flags5testss_18test_error_display
FNDA:1,_RNvNtNtCsjGPQoqpdV0f_11superconfig12config_flags5testss_22test_flag_combinations
FNDA:1,_RNvNtNtCsjGPQoqpdV0f_11superconfig12config_flags5testss_27test_runtime_flag_constants
FNDA:1,_RNvNtNtCsjGPQoqpdV0f_11superconfig12config_flags5testss_27test_startup_flag_constants
FNDA:1,_RNvNtNtCsjGPQoqpdV0f_11superconfig12config_flags5testss_28test_runtime_flag_validation
FNDA:1,_RNvNtNtCsjGPQoqpdV0f_11superconfig12config_flags5testss_28test_startup_flag_validation
FNDA:43,_RNvNtCsjGPQoqpdV0f_11superconfig12config_flags21is_valid_runtime_flag
FNDA:10,_RNvNtCsjGPQoqpdV0f_11superconfig12config_flags21is_valid_startup_flag
FNF:8
FNH:8
DA:101,43
DA:103,43
DA:104,43
DA:117,10
DA:119,10
DA:120,10
DA:127,1
DA:128,1
DA:129,1
DA:130,1
DA:133,1
DA:134,1
DA:135,1
DA:138,1
DA:139,1
DA:140,1
DA:141,1
DA:142,1
DA:143,1
DA:146,1
DA:147,1
DA:148,1
DA:151,1
DA:153,1
DA:154,1
DA:157,1
DA:158,1
DA:160,1
DA:161,1
DA:162,1
DA:165,1
DA:166,1
DA:167,1
DA:168,1
DA:171,1
DA:173,1
DA:174,1
DA:175,1
DA:176,1
DA:177,1
DA:180,1
DA:181,1
DA:183,1
DA:184,1
DA:188,1
DA:191,1
DA:192,1
DA:193,1
DA:196,1
DA:197,1
DA:200,1
DA:202,1
DA:203,1
DA:204,1
DA:207,1
DA:208,1
DA:209,1
DA:213,1
DA:216,1
DA:217,1
DA:218,1
DA:221,1
DA:222,1
BRF:0
BRH:0
LF:63
LH:63
end_of_record
SF:/home/nsm/code/deepbrain/superconfig/crates/superconfig/src/core/handle.rs
FN:159,_RNvNtNtNtCsjGPQoqpdV0f_11superconfig4core6handle5testss_16test_handle_copy
FN:143,_RNvNtNtNtCsjGPQoqpdV0f_11superconfig4core6handle5testss_16test_handle_hash
FN:168,_RNvNtNtNtCsjGPQoqpdV0f_11superconfig4core6handle5testss_17test_handle_debug
FN:116,_RNvNtNtNtCsjGPQoqpdV0f_11superconfig4core6handle5testss_20test_handle_creation
FN:133,_RNvNtNtNtCsjGPQoqpdV0f_11superconfig4core6handle5testss_20test_handle_equality
FN:122,_RNvNtNtNtCsjGPQoqpdV0f_11superconfig4core6handle5testss_25test_handle_serialization
FN:192,_RNvNtNtNtCsjGPQoqpdV0f_11superconfig4core6handle5testss_26test_handle_json_roundtrip
FN:177,_RNvNtNtNtCsjGPQoqpdV0f_11superconfig4core6handle5testss_27test_phantom_data_zero_cost
FN:207,_RNvNtNtNtCsjGPQoqpdV0f_11superconfig4core6handle5testss_38test_different_types_different_handles
FN:81,_RINvXs0_NtNtCsjGPQoqpdV0f_11superconfig4core6handleINtB6_12ConfigHandleNtNtB6_5tests10TestConfigENtNtCs72poBQYxl7f_5serde2de11Deserialize11deserializeQINtNtCsg55SrRIA84C_10serde_json2de12DeserializerNtNtB2u_4read7StrReadEEBa_
FN:100,_RINvXs3_NtNtCsjGPQoqpdV0f_11superconfig4core6handleINtB6_12ConfigHandleNtNtB6_5tests10TestConfigENtNtCs5PWqPNlYhOV_4core4hash4Hash4hashNtNtNtCs7uEkMWoEdbE_3std4hash6random13DefaultHasherEBa_
FN:71,_RINvXs_NtNtCsjGPQoqpdV0f_11superconfig4core6handleINtB5_12ConfigHandleNtNtB5_5tests10TestConfigENtNtCs72poBQYxl7f_5serde3ser9Serialize9serializeQINtNtCsg55SrRIA84C_10serde_json3ser10SerializerQINtNtCs47CRGuBXQUh_5alloc3vec3VechEEEB9_
FN:64,_RNvMNtNtCsjGPQoqpdV0f_11superconfig4core6handleINtB2_12ConfigHandleNtNtB2_5tests10TestConfigE2idB6_
FN:43,_RNvMNtNtCsjGPQoqpdV0f_11superconfig4core6handleINtB2_12ConfigHandleNtNtB2_5tests10TestConfigE3newB6_
FN:64,_RNvMNtNtCsjGPQoqpdV0f_11superconfig4core6handleINtB2_12ConfigHandleNtNtCs47CRGuBXQUh_5alloc6string6StringE2idB6_
FN:43,_RNvMNtNtCsjGPQoqpdV0f_11superconfig4core6handleINtB2_12ConfigHandleNtNtCs47CRGuBXQUh_5alloc6string6StringE3newB6_
FN:64,_RNvMNtNtCsjGPQoqpdV0f_11superconfig4core6handleINtB2_12ConfigHandleNtNtNtB4_8registry5tests10TestConfigE2idB6_
FN:43,_RNvMNtNtCsjGPQoqpdV0f_11superconfig4core6handleINtB2_12ConfigHandleNtNtNtB4_8registry5tests10TestConfigE3newB6_
FN:64,_RNvMNtNtCsjGPQoqpdV0f_11superconfig4core6handleINtB2_12ConfigHandleNtNtNtB4_8registry5tests12SimpleConfigE2idB6_
FN:43,_RNvMNtNtCsjGPQoqpdV0f_11superconfig4core6handleINtB2_12ConfigHandleNtNtNtB4_8registry5tests12SimpleConfigE3newB6_
FN:64,_RNvMNtNtCsjGPQoqpdV0f_11superconfig4core6handleINtB2_12ConfigHandleNtNvNtNtB4_8registry5testss_35test_read_as_json_with_complex_data13ComplexConfigE2idB6_
FN:43,_RNvMNtNtCsjGPQoqpdV0f_11superconfig4core6handleINtB2_12ConfigHandleNtNvNtNtB4_8registry5testss_35test_read_as_json_with_complex_data13ComplexConfigE3newB6_
FN:64,_RNvMNtNtCsjGPQoqpdV0f_11superconfig4core6handleINtB2_12ConfigHandlelE2idB6_
FN:43,_RNvMNtNtCsjGPQoqpdV0f_11superconfig4core6handleINtB2_12ConfigHandlelE3newB6_
FN:92,_RNvXs1_NtNtCsjGPQoqpdV0f_11superconfig4core6handleINtB5_12ConfigHandleNtNtB5_5tests10TestConfigENtNtCs5PWqPNlYhOV_4core3cmp9PartialEq2eqB9_
FNDA:1,_RNvNtNtNtCsjGPQoqpdV0f_11superconfig4core6handle5testss_16test_handle_copy
FNDA:1,_RNvNtNtNtCsjGPQoqpdV0f_11superconfig4core6handle5testss_16test_handle_hash
FNDA:1,_RNvNtNtNtCsjGPQoqpdV0f_11superconfig4core6handle5testss_17test_handle_debug
FNDA:1,_RNvNtNtNtCsjGPQoqpdV0f_11superconfig4core6handle5testss_20test_handle_creation
FNDA:1,_RNvNtNtNtCsjGPQoqpdV0f_11superconfig4core6handle5testss_20test_handle_equality
FNDA:1,_RNvNtNtNtCsjGPQoqpdV0f_11superconfig4core6handle5testss_25test_handle_serialization
FNDA:1,_RNvNtNtNtCsjGPQoqpdV0f_11superconfig4core6handle5testss_26test_handle_json_roundtrip
FNDA:1,_RNvNtNtNtCsjGPQoqpdV0f_11superconfig4core6handle5testss_27test_phantom_data_zero_cost
FNDA:1,_RNvNtNtNtCsjGPQoqpdV0f_11superconfig4core6handle5testss_38test_different_types_different_handles
FNDA:2,_RINvXs0_NtNtCsjGPQoqpdV0f_11superconfig4core6handleINtB6_12ConfigHandleNtNtB6_5tests10TestConfigENtNtCs72poBQYxl7f_5serde2de11Deserialize11deserializeQINtNtCsg55SrRIA84C_10serde_json2de12DeserializerNtNtB2u_4read7StrReadEEBa_
FNDA:3,_RINvXs3_NtNtCsjGPQoqpdV0f_11superconfig4core6handleINtB6_12ConfigHandleNtNtB6_5tests10TestConfigENtNtCs5PWqPNlYhOV_4core4hash4Hash4hashNtNtNtCs7uEkMWoEdbE_3std4hash6random13DefaultHasherEBa_
FNDA:2,_RINvXs_NtNtCsjGPQoqpdV0f_11superconfig4core6handleINtB5_12ConfigHandleNtNtB5_5tests10TestConfigENtNtCs72poBQYxl7f_5serde3ser9Serialize9serializeQINtNtCsg55SrRIA84C_10serde_json3ser10SerializerQINtNtCs47CRGuBXQUh_5alloc3vec3VechEEEB9_
FNDA:7,_RNvMNtNtCsjGPQoqpdV0f_11superconfig4core6handleINtB2_12ConfigHandleNtNtB2_5tests10TestConfigE2idB6_
FNDA:13,_RNvMNtNtCsjGPQoqpdV0f_11superconfig4core6handleINtB2_12ConfigHandleNtNtB2_5tests10TestConfigE3newB6_
FNDA:6,_RNvMNtNtCsjGPQoqpdV0f_11superconfig4core6handleINtB2_12ConfigHandleNtNtCs47CRGuBXQUh_5alloc6string6StringE2idB6_
FNDA:5,_RNvMNtNtCsjGPQoqpdV0f_11superconfig4core6handleINtB2_12ConfigHandleNtNtCs47CRGuBXQUh_5alloc6string6StringE3newB6_
FNDA:33,_RNvMNtNtCsjGPQoqpdV0f_11superconfig4core6handleINtB2_12ConfigHandleNtNtNtB4_8registry5tests10TestConfigE2idB6_
FNDA:14,_RNvMNtNtCsjGPQoqpdV0f_11superconfig4core6handleINtB2_12ConfigHandleNtNtNtB4_8registry5tests10TestConfigE3newB6_
FNDA:2374,_RNvMNtNtCsjGPQoqpdV0f_11superconfig4core6handleINtB2_12ConfigHandleNtNtNtB4_8registry5tests12SimpleConfigE2idB6_
FNDA:1021,_RNvMNtNtCsjGPQoqpdV0f_11superconfig4core6handleINtB2_12ConfigHandleNtNtNtB4_8registry5tests12SimpleConfigE3newB6_
FNDA:3,_RNvMNtNtCsjGPQoqpdV0f_11superconfig4core6handleINtB2_12ConfigHandleNtNvNtNtB4_8registry5testss_35test_read_as_json_with_complex_data13ComplexConfigE2idB6_
FNDA:2,_RNvMNtNtCsjGPQoqpdV0f_11superconfig4core6handleINtB2_12ConfigHandleNtNvNtNtB4_8registry5testss_35test_read_as_json_with_complex_data13ComplexConfigE3newB6_
FNDA:1,_RNvMNtNtCsjGPQoqpdV0f_11superconfig4core6handleINtB2_12ConfigHandlelE2idB6_
FNDA:1,_RNvMNtNtCsjGPQoqpdV0f_11superconfig4core6handleINtB2_12ConfigHandlelE3newB6_
FNDA:4,_RNvXs1_NtNtCsjGPQoqpdV0f_11superconfig4core6handleINtB5_12ConfigHandleNtNtB5_5tests10TestConfigENtNtCs5PWqPNlYhOV_4core3cmp9PartialEq2eqB9_
FNF:15
FNH:15
DA:43,1056
DA:44,1056
DA:45,1056
DA:46,1056
DA:47,1056
DA:48,1056
DA:64,2424
DA:65,2424
DA:66,2424
DA:71,2
DA:72,2
DA:73,2
DA:75,2
DA:76,2
DA:81,2
DA:82,2
DA:83,2
DA:85,2
DA:86,2
DA:87,2
DA:92,4
DA:93,4
DA:94,4
DA:100,3
DA:101,3
DA:102,3
DA:116,1
DA:117,1
DA:118,1
DA:119,1
DA:122,1
DA:123,1
DA:125,1
DA:126,1
DA:128,1
DA:129,1
DA:130,1
DA:133,1
DA:134,1
DA:135,1
DA:136,1
DA:138,1
DA:139,1
DA:140,1
DA:143,1
DA:146,1
DA:147,1
DA:148,1
DA:150,1
DA:151,1
DA:152,1
DA:153,1
DA:155,1
DA:156,1
DA:159,1
DA:160,1
DA:161,1
DA:163,1
DA:164,1
DA:165,1
DA:168,1
DA:169,1
DA:170,1
DA:172,1
DA:173,1
DA:174,1
DA:177,1
DA:181,1
DA:185,1
DA:189,1
DA:192,1
DA:193,1
DA:196,1
DA:197,1
DA:200,1
DA:202,1
DA:203,1
DA:204,1
DA:207,1
DA:209,1
DA:210,1
DA:213,1
DA:215,1
BRF:0
BRH:0
LF:83
LH:83
end_of_record
SF:/home/nsm/code/deepbrain/superconfig/crates/superconfig/src/core/registry.rs
FN:642,_RNvNtNtNtCsjGPQoqpdV0f_11superconfig4core8registry5testss_11test_delete
FN:612,_RNvNtNtNtCsjGPQoqpdV0f_11superconfig4core8registry5testss_11test_update
FN:715,_RNvNtNtNtCsjGPQoqpdV0f_11superconfig4core8registry5testss_15test_statistics
FN:693,_RNvNtNtNtCsjGPQoqpdV0f_11superconfig4core8registry5testss_15test_wrong_type
FN:830,_RNvNtNtNtCsjGPQoqpdV0f_11superconfig4core8registry5testss_16test_arc_sharing
FN:872,_RNvNtNtNtCsjGPQoqpdV0f_11superconfig4core8registry5testss_19test_clear_registry
FN:990,_RNvNtNtNtCsjGPQoqpdV0f_11superconfig4core8registry5testss_19test_enable_success
FN:853,_RNvNtNtNtCsjGPQoqpdV0f_11superconfig4core8registry5testss_19test_memory_cleanup
FN:913,_RNvNtNtNtCsjGPQoqpdV0f_11superconfig4core8registry5testss_20test_builder_pattern
FN:571,_RNvNtNtNtCsjGPQoqpdV0f_11superconfig4core8registry5testss_20test_create_and_read
FN:1308,_RNvNtNtNtCsjGPQoqpdV0f_11superconfig4core8registry5testss_20test_disable_success
FN:587,_RNvNtNtNtCsjGPQoqpdV0f_11superconfig4core8registry5testss_20test_flag_operations
FN:820,_RNvNtNtNtCsjGPQoqpdV0f_11superconfig4core8registry5testss_20test_global_registry
FN:770,_RNvNtNtNtCsjGPQoqpdV0f_11superconfig4core8registry5testss_22test_concurrent_access
FN:1430,_RNvNtNtNtCsjGPQoqpdV0f_11superconfig4core8registry5testss_22test_delete_wrong_type
FN:1376,_RNvNtNtNtCsjGPQoqpdV0f_11superconfig4core8registry5testss_22test_get_runtime_flags
FN:1197,_RNvNtNtNtCsjGPQoqpdV0f_11superconfig4core8registry5testss_23test_read_as_json_error
FN:1070,_RNvNtNtNtCsjGPQoqpdV0f_11superconfig4core8registry5testss_25test_arc_catch_and_errors
FN:1143,_RNvNtNtNtCsjGPQoqpdV0f_11superconfig4core8registry5testss_25test_enable_as_json_error
FN:894,_RNvNtNtNtCsjGPQoqpdV0f_11superconfig4core8registry5testss_25test_handle_id_generation
FN:1178,_RNvNtNtNtCsjGPQoqpdV0f_11superconfig4core8registry5testss_25test_read_as_json_success
FN:1365,_RNvNtNtNtCsjGPQoqpdV0f_11superconfig4core8registry5testss_26test_disable_as_json_error
FN:1008,_RNvNtNtNtCsjGPQoqpdV0f_11superconfig4core8registry5testss_26test_enable_error_handling
FN:1330,_RNvNtNtNtCsjGPQoqpdV0f_11superconfig4core8registry5testss_27test_disable_error_handling
FN:1128,_RNvNtNtNtCsjGPQoqpdV0f_11superconfig4core8registry5testss_27test_enable_as_json_success
FN:1027,_RNvNtNtNtCsjGPQoqpdV0f_11superconfig4core8registry5testss_27test_enable_method_chaining
FN:1417,_RNvNtNtNtCsjGPQoqpdV0f_11superconfig4core8registry5testss_28test_delete_handle_not_found
FN:1348,_RNvNtNtNtCsjGPQoqpdV0f_11superconfig4core8registry5testss_28test_disable_as_json_success
FN:1050,_RNvNtNtNtCsjGPQoqpdV0f_11superconfig4core8registry5testss_28test_enable_disable_chaining
FN:1404,_RNvNtNtNtCsjGPQoqpdV0f_11superconfig4core8registry5testss_28test_update_handle_not_found
FN:1454,_RNvNtNtNtCsjGPQoqpdV0f_11superconfig4core8registry5testss_30test_get_arc_data_success_path
FN:661,_RNvNtNtNtCsjGPQoqpdV0f_11superconfig4core8registry5testss_30test_invalid_handle_operations
FN:1084,_RNvNtNtNtCsjGPQoqpdV0f_11superconfig4core8registry5testss_30test_registry_creation_methods
FN:1105,_RNvNtNtNtCsjGPQoqpdV0f_11superconfig4core8registry5testss_32test_registry_reference_behavior
FN:1154,_RNvNtNtNtCsjGPQoqpdV0f_11superconfig4core8registry5testss_33test_enable_as_json_with_chaining
FN:1472,_RNvNtNtNtCsjGPQoqpdV0f_11superconfig4core8registry5testss_34test_comprehensive_crud_operations
FN:1213,_RNvNtNtNtCsjGPQoqpdV0f_11superconfig4core8registry5testss_34test_read_as_json_with_string_data
FN:922,_RNvNtNtNtCsjGPQoqpdV0f_11superconfig4core8registry5testss_35test_macro_generated_enable_as_json
FN:1289,_RNvNtNtNtCsjGPQoqpdV0f_11superconfig4core8registry5testss_35test_read_as_json_arc_dereferencing
FN:1229,_RNvNtNtNtCsjGPQoqpdV0f_11superconfig4core8registry5testss_35test_read_as_json_with_complex_data
FN:1520,_RNvNtNtNtCsjGPQoqpdV0f_11superconfig4core8registry5testss_37test_multiple_operations_for_coverage
FN:1273,_RNvNtNtNtCsjGPQoqpdV0f_11superconfig4core8registry5testss_38test_read_as_json_serialize_constraint
FN:1563,_RNvNtNtNtCsjGPQoqpdV0f_11superconfig4core8registry5testss_39test_delete_wrong_type_explicit_logging
FN:1596,_RNvNtNtNtCsjGPQoqpdV0f_11superconfig4core8registry5testss_41test_delete_testconfig_wrong_type_closure
FN:961,_RNvNtNtNtCsjGPQoqpdV0f_11superconfig4core8registry5testss_41test_macro_generated_enable_as_json_error
FN:505,_RNvMs0_NtNtCsjGPQoqpdV0f_11superconfig4core8registryNtB5_14ConfigRegistry3len
FN:485,_RNvMs0_NtNtCsjGPQoqpdV0f_11superconfig4core8registryNtB5_14ConfigRegistry5clear
FN:448,_RNvMs0_NtNtCsjGPQoqpdV0f_11superconfig4core8registryNtB5_14ConfigRegistry5stats
FN:523,_RNvMs0_NtNtCsjGPQoqpdV0f_11superconfig4core8registryNtB5_14ConfigRegistry8is_empty
FN:225,_RNvMs_NtNtCsjGPQoqpdV0f_11superconfig4core8registryNtB4_14ConfigRegistry15runtime_enabled
FN:213,_RNvMs_NtNtCsjGPQoqpdV0f_11superconfig4core8registryNtB4_14ConfigRegistry15startup_enabled
FN:232,_RNvMs_NtNtCsjGPQoqpdV0f_11superconfig4core8registryNtB4_14ConfigRegistry16runtime_disabled
FN:219,_RNvMs_NtNtCsjGPQoqpdV0f_11superconfig4core8registryNtB4_14ConfigRegistry16startup_disabled
FN:244,_RNvMs_NtNtCsjGPQoqpdV0f_11superconfig4core8registryNtB4_14ConfigRegistry17get_runtime_flags
FN:238,_RNvMs_NtNtCsjGPQoqpdV0f_11superconfig4core8registryNtB4_14ConfigRegistry17get_startup_flags
FN:123,_RNvMs_NtNtCsjGPQoqpdV0f_11superconfig4core8registryNtB4_14ConfigRegistry3new
FN:141,_RNvMs_NtNtCsjGPQoqpdV0f_11superconfig4core8registryNtB4_14ConfigRegistry6custom
FN:167,_RNvMs_NtNtCsjGPQoqpdV0f_11superconfig4core8registryNtB4_14ConfigRegistry6enable
FN:196,_RNvMs_NtNtCsjGPQoqpdV0f_11superconfig4core8registryNtB4_14ConfigRegistry7disable
FN:546,_RNvNtNtCsjGPQoqpdV0f_11superconfig4core8registry15global_registry
FN:783,_RNCNvNtNtNtCsjGPQoqpdV0f_11superconfig4core8registry5testss_22test_concurrent_access0B9_
FN:56,_RINvMNtNtCsjGPQoqpdV0f_11superconfig4core8registryNtB3_11ConfigEntry12get_arc_dataNtNtB3_5tests10TestConfigEB7_
FN:56,_RINvMNtNtCsjGPQoqpdV0f_11superconfig4core8registryNtB3_11ConfigEntry12get_arc_dataNtNtB3_5tests12SimpleConfigEB7_
FN:56,_RINvMNtNtCsjGPQoqpdV0f_11superconfig4core8registryNtB3_11ConfigEntry12get_arc_dataNtNtCs47CRGuBXQUh_5alloc6string6StringEB7_
FN:56,_RINvMNtNtCsjGPQoqpdV0f_11superconfig4core8registryNtB3_11ConfigEntry12get_arc_dataNtNvNtB3_5testss_35test_read_as_json_with_complex_data13ComplexConfigEB7_
FN:44,_RINvMNtNtCsjGPQoqpdV0f_11superconfig4core8registryNtB3_11ConfigEntry3newNtNtB3_5tests10TestConfigEB7_
FN:44,_RINvMNtNtCsjGPQoqpdV0f_11superconfig4core8registryNtB3_11ConfigEntry3newNtNtB3_5tests12SimpleConfigEB7_
FN:44,_RINvMNtNtCsjGPQoqpdV0f_11superconfig4core8registryNtB3_11ConfigEntry3newNtNtCs47CRGuBXQUh_5alloc6string6StringEB7_
FN:44,_RINvMNtNtCsjGPQoqpdV0f_11superconfig4core8registryNtB3_11ConfigEntry3newNtNvNtB3_5testss_35test_read_as_json_with_complex_data13ComplexConfigEB7_
FN:467,_RINvMs0_NtNtCsjGPQoqpdV0f_11superconfig4core8registryNtB6_14ConfigRegistry15contains_handleNtNtB6_5tests10TestConfigEBa_
FN:319,_RINvMs0_NtNtCsjGPQoqpdV0f_11superconfig4core8registryNtB6_14ConfigRegistry4readNtNtB6_5tests10TestConfigEBa_
FN:319,_RINvMs0_NtNtCsjGPQoqpdV0f_11superconfig4core8registryNtB6_14ConfigRegistry4readNtNtB6_5tests12SimpleConfigEBa_
FN:319,_RINvMs0_NtNtCsjGPQoqpdV0f_11superconfig4core8registryNtB6_14ConfigRegistry4readNtNtCs47CRGuBXQUh_5alloc6string6StringEBa_
FN:319,_RINvMs0_NtNtCsjGPQoqpdV0f_11superconfig4core8registryNtB6_14ConfigRegistry4readNtNvNtB6_5testss_35test_read_as_json_with_complex_data13ComplexConfigEBa_
FN:270,_RINvMs0_NtNtCsjGPQoqpdV0f_11superconfig4core8registryNtB6_14ConfigRegistry6createNtNtB6_5tests10TestConfigEBa_
FN:270,_RINvMs0_NtNtCsjGPQoqpdV0f_11superconfig4core8registryNtB6_14ConfigRegistry6createNtNtB6_5tests12SimpleConfigEBa_
FN:270,_RINvMs0_NtNtCsjGPQoqpdV0f_11superconfig4core8registryNtB6_14ConfigRegistry6createNtNtCs47CRGuBXQUh_5alloc6string6StringEBa_
FN:270,_RINvMs0_NtNtCsjGPQoqpdV0f_11superconfig4core8registryNtB6_14ConfigRegistry6createNtNvNtB6_5testss_35test_read_as_json_with_complex_data13ComplexConfigEBa_
FN:410,_RINvMs0_NtNtCsjGPQoqpdV0f_11superconfig4core8registryNtB6_14ConfigRegistry6deleteNtNtB6_5tests10TestConfigEBa_
FN:410,_RINvMs0_NtNtCsjGPQoqpdV0f_11superconfig4core8registryNtB6_14ConfigRegistry6deleteNtNtB6_5tests12SimpleConfigEBa_
FN:357,_RINvMs0_NtNtCsjGPQoqpdV0f_11superconfig4core8registryNtB6_14ConfigRegistry6updateNtNtB6_5tests10TestConfigEBa_
FN:357,_RINvMs0_NtNtCsjGPQoqpdV0f_11superconfig4core8registryNtB6_14ConfigRegistry6updateNtNtB6_5tests12SimpleConfigEBa_
FN:320,_RNCINvMs0_NtNtCsjGPQoqpdV0f_11superconfig4core8registryNtB8_14ConfigRegistry4readNtNtB8_5tests10TestConfigE0Bc_
FN:320,_RNCINvMs0_NtNtCsjGPQoqpdV0f_11superconfig4core8registryNtB8_14ConfigRegistry4readNtNtB8_5tests12SimpleConfigE0Bc_
FN:320,_RNCINvMs0_NtNtCsjGPQoqpdV0f_11superconfig4core8registryNtB8_14ConfigRegistry4readNtNtCs47CRGuBXQUh_5alloc6string6StringE0Bc_
FN:320,_RNCINvMs0_NtNtCsjGPQoqpdV0f_11superconfig4core8registryNtB8_14ConfigRegistry4readNtNvNtB8_5testss_35test_read_as_json_with_complex_data13ComplexConfigE0Bc_
FN:411,_RNCINvMs0_NtNtCsjGPQoqpdV0f_11superconfig4core8registryNtB8_14ConfigRegistry6deleteNtNtB8_5tests10TestConfigE0Bc_
FN:420,_RNCINvMs0_NtNtCsjGPQoqpdV0f_11superconfig4core8registryNtB8_14ConfigRegistry6deleteNtNtB8_5tests10TestConfigEs_0Bc_
FN:411,_RNCINvMs0_NtNtCsjGPQoqpdV0f_11superconfig4core8registryNtB8_14ConfigRegistry6deleteNtNtB8_5tests12SimpleConfigE0Bc_
FN:420,_RNCINvMs0_NtNtCsjGPQoqpdV0f_11superconfig4core8registryNtB8_14ConfigRegistry6deleteNtNtB8_5tests12SimpleConfigEs_0Bc_
FN:363,_RNCINvMs0_NtNtCsjGPQoqpdV0f_11superconfig4core8registryNtB8_14ConfigRegistry6updateNtNtB8_5tests10TestConfigE0Bc_
FN:363,_RNCINvMs0_NtNtCsjGPQoqpdV0f_11superconfig4core8registryNtB8_14ConfigRegistry6updateNtNtB8_5tests12SimpleConfigE0Bc_
FNDA:1,_RNvNtNtNtCsjGPQoqpdV0f_11superconfig4core8registry5testss_11test_delete
FNDA:1,_RNvNtNtNtCsjGPQoqpdV0f_11superconfig4core8registry5testss_11test_update
FNDA:1,_RNvNtNtNtCsjGPQoqpdV0f_11superconfig4core8registry5testss_15test_statistics
FNDA:1,_RNvNtNtNtCsjGPQoqpdV0f_11superconfig4core8registry5testss_15test_wrong_type
FNDA:1,_RNvNtNtNtCsjGPQoqpdV0f_11superconfig4core8registry5testss_16test_arc_sharing
FNDA:1,_RNvNtNtNtCsjGPQoqpdV0f_11superconfig4core8registry5testss_19test_clear_registry
FNDA:1,_RNvNtNtNtCsjGPQoqpdV0f_11superconfig4core8registry5testss_19test_enable_success
FNDA:1,_RNvNtNtNtCsjGPQoqpdV0f_11superconfig4core8registry5testss_19test_memory_cleanup
FNDA:1,_RNvNtNtNtCsjGPQoqpdV0f_11superconfig4core8registry5testss_20test_builder_pattern
FNDA:1,_RNvNtNtNtCsjGPQoqpdV0f_11superconfig4core8registry5testss_20test_create_and_read
FNDA:1,_RNvNtNtNtCsjGPQoqpdV0f_11superconfig4core8registry5testss_20test_disable_success
FNDA:1,_RNvNtNtNtCsjGPQoqpdV0f_11superconfig4core8registry5testss_20test_flag_operations
FNDA:1,_RNvNtNtNtCsjGPQoqpdV0f_11superconfig4core8registry5testss_20test_global_registry
FNDA:1,_RNvNtNtNtCsjGPQoqpdV0f_11superconfig4core8registry5testss_22test_concurrent_access
FNDA:1,_RNvNtNtNtCsjGPQoqpdV0f_11superconfig4core8registry5testss_22test_delete_wrong_type
FNDA:1,_RNvNtNtNtCsjGPQoqpdV0f_11superconfig4core8registry5testss_22test_get_runtime_flags
FNDA:1,_RNvNtNtNtCsjGPQoqpdV0f_11superconfig4core8registry5testss_23test_read_as_json_error
FNDA:1,_RNvNtNtNtCsjGPQoqpdV0f_11superconfig4core8registry5testss_25test_arc_catch_and_errors
FNDA:1,_RNvNtNtNtCsjGPQoqpdV0f_11superconfig4core8registry5testss_25test_enable_as_json_error
FNDA:1,_RNvNtNtNtCsjGPQoqpdV0f_11superconfig4core8registry5testss_25test_handle_id_generation
FNDA:1,_RNvNtNtNtCsjGPQoqpdV0f_11superconfig4core8registry5testss_25test_read_as_json_success
FNDA:1,_RNvNtNtNtCsjGPQoqpdV0f_11superconfig4core8registry5testss_26test_disable_as_json_error
FNDA:1,_RNvNtNtNtCsjGPQoqpdV0f_11superconfig4core8registry5testss_26test_enable_error_handling
FNDA:1,_RNvNtNtNtCsjGPQoqpdV0f_11superconfig4core8registry5testss_27test_disable_error_handling
FNDA:1,_RNvNtNtNtCsjGPQoqpdV0f_11superconfig4core8registry5testss_27test_enable_as_json_success
FNDA:1,_RNvNtNtNtCsjGPQoqpdV0f_11superconfig4core8registry5testss_27test_enable_method_chaining
FNDA:1,_RNvNtNtNtCsjGPQoqpdV0f_11superconfig4core8registry5testss_28test_delete_handle_not_found
FNDA:1,_RNvNtNtNtCsjGPQoqpdV0f_11superconfig4core8registry5testss_28test_disable_as_json_success
FNDA:1,_RNvNtNtNtCsjGPQoqpdV0f_11superconfig4core8registry5testss_28test_enable_disable_chaining
FNDA:1,_RNvNtNtNtCsjGPQoqpdV0f_11superconfig4core8registry5testss_28test_update_handle_not_found
FNDA:1,_RNvNtNtNtCsjGPQoqpdV0f_11superconfig4core8registry5testss_30test_get_arc_data_success_path
FNDA:1,_RNvNtNtNtCsjGPQoqpdV0f_11superconfig4core8registry5testss_30test_invalid_handle_operations
FNDA:1,_RNvNtNtNtCsjGPQoqpdV0f_11superconfig4core8registry5testss_30test_registry_creation_methods
FNDA:1,_RNvNtNtNtCsjGPQoqpdV0f_11superconfig4core8registry5testss_32test_registry_reference_behavior
FNDA:1,_RNvNtNtNtCsjGPQoqpdV0f_11superconfig4core8registry5testss_33test_enable_as_json_with_chaining
FNDA:1,_RNvNtNtNtCsjGPQoqpdV0f_11superconfig4core8registry5testss_34test_comprehensive_crud_operations
FNDA:1,_RNvNtNtNtCsjGPQoqpdV0f_11superconfig4core8registry5testss_34test_read_as_json_with_string_data
FNDA:1,_RNvNtNtNtCsjGPQoqpdV0f_11superconfig4core8registry5testss_35test_macro_generated_enable_as_json
FNDA:1,_RNvNtNtNtCsjGPQoqpdV0f_11superconfig4core8registry5testss_35test_read_as_json_arc_dereferencing
FNDA:1,_RNvNtNtNtCsjGPQoqpdV0f_11superconfig4core8registry5testss_35test_read_as_json_with_complex_data
FNDA:1,_RNvNtNtNtCsjGPQoqpdV0f_11superconfig4core8registry5testss_37test_multiple_operations_for_coverage
FNDA:1,_RNvNtNtNtCsjGPQoqpdV0f_11superconfig4core8registry5testss_38test_read_as_json_serialize_constraint
FNDA:1,_RNvNtNtNtCsjGPQoqpdV0f_11superconfig4core8registry5testss_39test_delete_wrong_type_explicit_logging
FNDA:1,_RNvNtNtNtCsjGPQoqpdV0f_11superconfig4core8registry5testss_41test_delete_testconfig_wrong_type_closure
FNDA:1,_RNvNtNtNtCsjGPQoqpdV0f_11superconfig4core8registry5testss_41test_macro_generated_enable_as_json_error
FNDA:2,_RNvMs0_NtNtCsjGPQoqpdV0f_11superconfig4core8registryNtB5_14ConfigRegistry3len
FNDA:1,_RNvMs0_NtNtCsjGPQoqpdV0f_11superconfig4core8registryNtB5_14ConfigRegistry5clear
FNDA:11,_RNvMs0_NtNtCsjGPQoqpdV0f_11superconfig4core8registryNtB5_14ConfigRegistry5stats
FNDA:2,_RNvMs0_NtNtCsjGPQoqpdV0f_11superconfig4core8registryNtB5_14ConfigRegistry8is_empty
FNDA:24,_RNvMs_NtNtCsjGPQoqpdV0f_11superconfig4core8registryNtB4_14ConfigRegistry15runtime_enabled
FNDA:7,_RNvMs_NtNtCsjGPQoqpdV0f_11superconfig4core8registryNtB4_14ConfigRegistry15startup_enabled
FNDA:1,_RNvMs_NtNtCsjGPQoqpdV0f_11superconfig4core8registryNtB4_14ConfigRegistry16runtime_disabled
FNDA:1,_RNvMs_NtNtCsjGPQoqpdV0f_11superconfig4core8registryNtB4_14ConfigRegistry16startup_disabled
FNDA:3,_RNvMs_NtNtCsjGPQoqpdV0f_11superconfig4core8registryNtB4_14ConfigRegistry17get_runtime_flags
FNDA:1,_RNvMs_NtNtCsjGPQoqpdV0f_11superconfig4core8registryNtB4_14ConfigRegistry17get_startup_flags
FNDA:43,_RNvMs_NtNtCsjGPQoqpdV0f_11superconfig4core8registryNtB4_14ConfigRegistry3new
FNDA:46,_RNvMs_NtNtCsjGPQoqpdV0f_11superconfig4core8registryNtB4_14ConfigRegistry6custom
FNDA:24,_RNvMs_NtNtCsjGPQoqpdV0f_11superconfig4core8registryNtB4_14ConfigRegistry6enable
FNDA:7,_RNvMs_NtNtCsjGPQoqpdV0f_11superconfig4core8registryNtB4_14ConfigRegistry7disable
FNDA:2,_RNvNtNtCsjGPQoqpdV0f_11superconfig4core8registry15global_registry
FNDA:10,_RNCNvNtNtNtCsjGPQoqpdV0f_11superconfig4core8registry5testss_22test_concurrent_access0B9_
FNDA:10,_RINvMNtNtCsjGPQoqpdV0f_11superconfig4core8registryNtB3_11ConfigEntry12get_arc_dataNtNtB3_5tests10TestConfigEB7_
FNDA:1013,_RINvMNtNtCsjGPQoqpdV0f_11superconfig4core8registryNtB3_11ConfigEntry12get_arc_dataNtNtB3_5tests12SimpleConfigEB7_
FNDA:3,_RINvMNtNtCsjGPQoqpdV0f_11superconfig4core8registryNtB3_11ConfigEntry12get_arc_dataNtNtCs47CRGuBXQUh_5alloc6string6StringEB7_
FNDA:1,_RINvMNtNtCsjGPQoqpdV0f_11superconfig4core8registryNtB3_11ConfigEntry12get_arc_dataNtNvNtB3_5testss_35test_read_as_json_with_complex_data13ComplexConfigEB7_
FNDA:14,_RINvMNtNtCsjGPQoqpdV0f_11superconfig4core8registryNtB3_11ConfigEntry3newNtNtB3_5tests10TestConfigEB7_
FNDA:1517,_RINvMNtNtCsjGPQoqpdV0f_11superconfig4core8registryNtB3_11ConfigEntry3newNtNtB3_5tests12SimpleConfigEB7_
FNDA:3,_RINvMNtNtCsjGPQoqpdV0f_11superconfig4core8registryNtB3_11ConfigEntry3newNtNtCs47CRGuBXQUh_5alloc6string6StringEB7_
FNDA:1,_RINvMNtNtCsjGPQoqpdV0f_11superconfig4core8registryNtB3_11ConfigEntry3newNtNvNtB3_5testss_35test_read_as_json_with_complex_data13ComplexConfigEB7_
FNDA:2,_RINvMs0_NtNtCsjGPQoqpdV0f_11superconfig4core8registryNtB6_14ConfigRegistry15contains_handleNtNtB6_5tests10TestConfigEBa_
FNDA:11,_RINvMs0_NtNtCsjGPQoqpdV0f_11superconfig4core8registryNtB6_14ConfigRegistry4readNtNtB6_5tests10TestConfigEBa_
FNDA:1014,_RINvMs0_NtNtCsjGPQoqpdV0f_11superconfig4core8registryNtB6_14ConfigRegistry4readNtNtB6_5tests12SimpleConfigEBa_
FNDA:4,_RINvMs0_NtNtCsjGPQoqpdV0f_11superconfig4core8registryNtB6_14ConfigRegistry4readNtNtCs47CRGuBXQUh_5alloc6string6StringEBa_
FNDA:2,_RINvMs0_NtNtCsjGPQoqpdV0f_11superconfig4core8registryNtB6_14ConfigRegistry4readNtNvNtB6_5testss_35test_read_as_json_with_complex_data13ComplexConfigEBa_
FNDA:11,_RINvMs0_NtNtCsjGPQoqpdV0f_11superconfig4core8registryNtB6_14ConfigRegistry6createNtNtB6_5tests10TestConfigEBa_
FNDA:1015,_RINvMs0_NtNtCsjGPQoqpdV0f_11superconfig4core8registryNtB6_14ConfigRegistry6createNtNtB6_5tests12SimpleConfigEBa_
FNDA:3,_RINvMs0_NtNtCsjGPQoqpdV0f_11superconfig4core8registryNtB6_14ConfigRegistry6createNtNtCs47CRGuBXQUh_5alloc6string6StringEBa_
FNDA:1,_RINvMs0_NtNtCsjGPQoqpdV0f_11superconfig4core8registryNtB6_14ConfigRegistry6createNtNvNtB6_5testss_35test_read_as_json_with_complex_data13ComplexConfigEBa_
FNDA:6,_RINvMs0_NtNtCsjGPQoqpdV0f_11superconfig4core8registryNtB6_14ConfigRegistry6deleteNtNtB6_5tests10TestConfigEBa_
FNDA:347,_RINvMs0_NtNtCsjGPQoqpdV0f_11superconfig4core8registryNtB6_14ConfigRegistry6deleteNtNtB6_5tests12SimpleConfigEBa_
FNDA:4,_RINvMs0_NtNtCsjGPQoqpdV0f_11superconfig4core8registryNtB6_14ConfigRegistry6updateNtNtB6_5tests10TestConfigEBa_
FNDA:503,_RINvMs0_NtNtCsjGPQoqpdV0f_11superconfig4core8registryNtB6_14ConfigRegistry6updateNtNtB6_5tests12SimpleConfigEBa_
FNDA:1,_RNCINvMs0_NtNtCsjGPQoqpdV0f_11superconfig4core8registryNtB8_14ConfigRegistry4readNtNtB8_5tests10TestConfigE0Bc_
FNDA:1,_RNCINvMs0_NtNtCsjGPQoqpdV0f_11superconfig4core8registryNtB8_14ConfigRegistry4readNtNtB8_5tests12SimpleConfigE0Bc_
FNDA:1,_RNCINvMs0_NtNtCsjGPQoqpdV0f_11superconfig4core8registryNtB8_14ConfigRegistry4readNtNtCs47CRGuBXQUh_5alloc6string6StringE0Bc_
FNDA:1,_RNCINvMs0_NtNtCsjGPQoqpdV0f_11superconfig4core8registryNtB8_14ConfigRegistry4readNtNvNtB8_5testss_35test_read_as_json_with_complex_data13ComplexConfigE0Bc_
FNDA:1,_RNCINvMs0_NtNtCsjGPQoqpdV0f_11superconfig4core8registryNtB8_14ConfigRegistry6deleteNtNtB8_5tests10TestConfigE0Bc_
FNDA:1,_RNCINvMs0_NtNtCsjGPQoqpdV0f_11superconfig4core8registryNtB8_14ConfigRegistry6deleteNtNtB8_5tests10TestConfigEs_0Bc_
FNDA:1,_RNCINvMs0_NtNtCsjGPQoqpdV0f_11superconfig4core8registryNtB8_14ConfigRegistry6deleteNtNtB8_5tests12SimpleConfigE0Bc_
FNDA:2,_RNCINvMs0_NtNtCsjGPQoqpdV0f_11superconfig4core8registryNtB8_14ConfigRegistry6deleteNtNtB8_5tests12SimpleConfigEs_0Bc_
FNDA:1,_RNCINvMs0_NtNtCsjGPQoqpdV0f_11superconfig4core8registryNtB8_14ConfigRegistry6updateNtNtB8_5tests10TestConfigE0Bc_
FNDA:1,_RNCINvMs0_NtNtCsjGPQoqpdV0f_11superconfig4core8registryNtB8_14ConfigRegistry6updateNtNtB8_5tests12SimpleConfigE0Bc_
FNF:72
FNH:72
DA:44,1535
DA:45,1535
DA:46,1535
DA:47,1535
DA:48,1535
DA:49,1535
DA:50,1535
DA:51,1535
DA:52,1535
DA:53,1535
DA:54,1535
DA:56,1027
DA:57,1027
DA:58,1027
DA:59,1
DA:60,1
DA:61,1
DA:62,1026
DA:65,1026
DA:66,1027
DA:123,43
DA:124,43
DA:125,43
DA:141,46
DA:142,46
DA:143,46
DA:144,46
DA:145,46
DA:146,46
DA:147,46
DA:148,46
DA:149,46
DA:167,24
DA:169,24
DA:170,2
DA:171,2
DA:172,22
DA:175,22
DA:176,22
DA:177,22
DA:178,22
DA:179,22
DA:180,24
DA:196,7
DA:198,7
DA:199,2
DA:200,2
DA:201,5
DA:204,5
DA:205,5
DA:206,5
DA:207,5
DA:208,5
DA:209,7
DA:213,7
DA:214,7
DA:215,7
DA:219,1
DA:220,1
DA:221,1
DA:225,24
DA:226,24
DA:227,24
DA:228,24
DA:232,1
DA:233,1
DA:234,1
DA:238,1
DA:239,1
DA:240,1
DA:244,3
DA:245,3
DA:246,3
DA:270,1030
DA:271,1030
DA:272,1030
DA:273,1030
DA:274,1030
DA:275,1030
DA:276,1030
DA:278,1030
DA:281,1030
DA:282,1030
DA:283,1030
DA:284,1030
DA:285,1030
DA:287,1030
DA:288,1030
DA:319,1031
DA:320,1031
DA:321,4
DA:322,4
DA:323,4
DA:324,4
DA:327,1027
DA:328,1027
DA:329,1027
DA:330,1027
DA:332,1027
DA:333,1031
DA:357,507
DA:358,507
DA:359,507
DA:360,507
DA:361,507
DA:363,507
DA:364,2
DA:365,2
DA:366,2
DA:367,2
DA:369,505
DA:372,505
DA:373,505
DA:376,505
DA:379,505
DA:380,505
DA:381,505
DA:382,505
DA:383,505
DA:384,505
DA:386,505
DA:387,507
DA:410,353
DA:411,353
DA:412,2
DA:413,2
DA:414,2
DA:415,2
DA:417,351
DA:420,351
DA:421,3
DA:422,3
DA:423,3
DA:424,3
DA:427,348
DA:428,348
DA:429,348
DA:430,348
DA:431,348
DA:433,348
DA:434,353
DA:448,11
DA:449,11
DA:450,11
DA:467,2
DA:468,2
DA:469,2
DA:485,1
DA:486,1
DA:487,1
DA:488,1
DA:489,1
DA:505,2
DA:506,2
DA:507,2
DA:523,2
DA:524,2
DA:525,2
DA:546,2
DA:547,2
DA:548,2
DA:571,1
DA:572,1
DA:573,1
DA:574,1
DA:575,1
DA:576,1
DA:577,1
DA:579,1
DA:580,1
DA:582,1
DA:583,1
DA:584,1
DA:587,1
DA:588,1
DA:589,1
DA:592,1
DA:593,1
DA:594,1
DA:595,1
DA:598,1
DA:599,1
DA:600,1
DA:601,1
DA:604,1
DA:605,1
DA:607,1
DA:608,1
DA:609,1
DA:612,1
DA:613,1
DA:614,1
DA:615,1
DA:616,1
DA:617,1
DA:618,1
DA:619,1
DA:620,1
DA:621,1
DA:622,1
DA:623,1
DA:625,1
DA:628,1
DA:630,1
DA:631,1
DA:634,1
DA:637,1
DA:638,1
DA:639,1
DA:642,1
DA:643,1
DA:644,1
DA:645,1
DA:646,1
DA:647,1
DA:648,1
DA:650,1
DA:651,1
DA:653,1
DA:656,1
DA:657,1
DA:658,1
DA:661,1
DA:662,1
DA:667,1
DA:668,1
DA:669,1
DA:670,1
DA:673,1
DA:674,1
DA:675,1
DA:676,1
DA:677,1
DA:678,1
DA:679,1
DA:680,1
DA:681,1
DA:684,1
DA:685,1
DA:686,1
DA:687,1
DA:689,1
DA:690,1
DA:693,1
DA:694,1
DA:695,1
DA:696,1
DA:697,1
DA:698,1
DA:699,1
DA:701,1
DA:704,1
DA:705,1
DA:707,1
DA:708,1
DA:709,1
DA:710,1
DA:711,1
DA:712,1
DA:715,1
DA:716,1
DA:717,1
DA:718,1
DA:719,1
DA:720,1
DA:721,1
DA:722,1
DA:725,1
DA:726,1
DA:727,1
DA:728,1
DA:731,1
DA:732,1
DA:734,1
DA:735,1
DA:736,1
DA:737,1
DA:740,1
DA:741,1
DA:743,1
DA:744,1
DA:747,1
DA:748,1
DA:749,1
DA:750,1
DA:751,1
DA:752,1
DA:753,1
DA:754,1
DA:755,1
DA:756,1
DA:758,1
DA:759,1
DA:762,1
DA:764,1
DA:765,1
DA:766,1
DA:767,1
DA:770,1
DA:771,1
DA:772,1
DA:773,1
DA:774,1
DA:776,1
DA:779,1
DA:780,10
DA:781,10
DA:783,10
DA:784,1000
DA:785,1000
DA:786,1000
DA:787,1000
DA:789,1000
DA:790,1000
DA:792,1000
DA:793,500
DA:794,500
DA:795,500
DA:796,500
DA:798,1000
DA:799,340
DA:800,660
DA:802,10
DA:803,10
DA:807,11
DA:808,10
DA:809,10
DA:811,1
DA:812,1
DA:814,1
DA:816,1
DA:817,1
DA:820,1
DA:821,1
DA:823,1
DA:824,1
DA:826,1
DA:827,1
DA:830,1
DA:831,1
DA:832,1
DA:833,1
DA:834,1
DA:835,1
DA:836,1
DA:838,1
DA:841,1
DA:842,1
DA:845,1
DA:848,1
DA:849,1
DA:850,1
DA:853,1
DA:854,1
DA:855,1
DA:856,1
DA:857,1
DA:858,1
DA:859,1
DA:861,1
DA:862,1
DA:865,1
DA:866,1
DA:868,1
DA:869,1
DA:872,1
DA:873,1
DA:876,1
DA:877,1
DA:879,1
DA:880,1
DA:883,1
DA:885,1
DA:886,1
DA:888,1
DA:889,1
DA:890,1
DA:891,1
DA:894,1
DA:895,1
DA:897,1
DA:898,1
DA:899,1
DA:902,1
DA:903,1
DA:904,1
DA:907,1
DA:908,1
DA:909,1
DA:910,1
DA:913,1
DA:914,1
DA:916,1
DA:917,1
DA:918,1
DA:922,1
DA:926,1
DA:927,1
DA:929,1
DA:932,1
DA:935,1
DA:937,1
DA:938,1
DA:941,1
DA:943,1
DA:944,1
DA:945,1
DA:946,1
DA:949,1
DA:950,1
DA:951,1
DA:953,1
DA:954,1
DA:961,1
DA:964,1
DA:967,1
DA:969,1
DA:972,1
DA:975,1
DA:976,1
DA:977,1
DA:979,1
DA:984,1
DA:990,1
DA:993,1
DA:996,1
DA:999,1
DA:1003,1
DA:1004,1
DA:1008,1
DA:1009,1
DA:1012,1
DA:1018,1
DA:1019,1
DA:1020,1
DA:1022,1
DA:1023,1
DA:1027,1
DA:1030,1
DA:1033,1
DA:1034,1
DA:1035,1
DA:1036,1
DA:1039,1
DA:1040,1
DA:1041,1
DA:1045,1
DA:1046,1
DA:1050,1
DA:1053,1
DA:1056,1
DA:1057,1
DA:1058,1
DA:1059,1
DA:1062,1
DA:1063,1
DA:1065,1
DA:1066,1
DA:1070,1
DA:1071,1
DA:1074,1
DA:1077,1
DA:1079,1
DA:1080,1
DA:1084,1
DA:1088,1
DA:1089,1
DA:1092,1
DA:1093,1
DA:1094,1
DA:1097,1
DA:1098,1
DA:1100,1
DA:1101,1
DA:1105,1
DA:1108,1
DA:1109,1
DA:1112,1
DA:1113,1
DA:1116,1
DA:1119,1
DA:1120,1
DA:1121,1
DA:1122,1
DA:1124,1
DA:1125,1
DA:1128,1
DA:1131,1
DA:1132,1
DA:1134,1
DA:1135,1
DA:1137,1
DA:1139,1
DA:1140,1
DA:1143,1
DA:1144,1
DA:1145,1
DA:1147,1
DA:1148,1
DA:1150,1
DA:1151,1
DA:1154,1
DA:1157,1
DA:1160,1
DA:1163,1
DA:1166,1
DA:1167,1
DA:1168,1
DA:1171,1
DA:1172,1
DA:1174,1
DA:1175,1
DA:1178,1
DA:1179,1
DA:1180,1
DA:1181,1
DA:1183,1
DA:1184,1
DA:1186,1
DA:1187,1
DA:1188,1
DA:1191,1
DA:1193,1
DA:1194,1
DA:1197,1
DA:1198,1
DA:1199,1
DA:1201,1
DA:1202,1
DA:1204,1
DA:1205,1
DA:1206,1
DA:1207,1
DA:1209,1
DA:1210,1
DA:1213,1
DA:1214,1
DA:1215,1
DA:1216,1
DA:1218,1
DA:1219,1
DA:1221,1
DA:1222,1
DA:1223,1
DA:1225,1
DA:1226,1
DA:1229,1
DA:1243,1
DA:1244,1
DA:1245,1
DA:1246,1
DA:1247,1
DA:1248,1
DA:1249,1
DA:1250,1
DA:1251,1
DA:1252,1
DA:1254,1
DA:1255,1
DA:1257,1
DA:1258,1
DA:1259,1
DA:1260,1
DA:1261,1
DA:1262,1
DA:1263,1
DA:1266,1
DA:1267,1
DA:1269,1
DA:1270,1
DA:1273,1
DA:1275,1
DA:1276,1
DA:1277,1
DA:1280,1
DA:1285,1
DA:1286,1
DA:1289,1
DA:1290,1
DA:1291,1
DA:1292,1
DA:1294,1
DA:1295,1
DA:1297,1
DA:1298,1
DA:1302,1
DA:1303,1
DA:1308,1
DA:1311,1
DA:1312,1
DA:1313,1
DA:1316,1
DA:1317,1
DA:1320,1
DA:1323,1
DA:1324,1
DA:1326,1
DA:1327,1
DA:1330,1
DA:1331,1
DA:1334,1
DA:1340,1
DA:1341,1
DA:1342,1
DA:1344,1
DA:1345,1
DA:1348,1
DA:1351,1
DA:1352,1
DA:1354,1
DA:1356,1
DA:1357,1
DA:1359,1
DA:1361,1
DA:1362,1
DA:1365,1
DA:1366,1
DA:1367,1
DA:1369,1
DA:1370,1
DA:1372,1
DA:1373,1
DA:1376,1
DA:1379,1
DA:1382,1
DA:1385,1
DA:1386,1
DA:1387,1
DA:1389,1
DA:1390,1
DA:1391,1
DA:1392,1
DA:1395,1
DA:1396,1
DA:1397,1
DA:1398,1
DA:1400,1
DA:1401,1
DA:1404,1
DA:1405,1
DA:1406,1
DA:1408,1
DA:1409,1
DA:1410,1
DA:1411,1
DA:1413,1
DA:1414,1
DA:1417,1
DA:1418,1
DA:1419,1
DA:1421,1
DA:1422,1
DA:1423,1
DA:1424,1
DA:1426,1
DA:1427,1
DA:1430,1
DA:1431,1
DA:1432,1
DA:1433,1
DA:1434,1
DA:1435,1
DA:1436,1
DA:1438,1
DA:1441,1
DA:1442,1
DA:1444,1
DA:1445,1
DA:1446,1
DA:1447,1
DA:1448,1
DA:1450,1
DA:1451,1
DA:1454,1
DA:1455,1
DA:1456,1
DA:1458,1
DA:1461,1
DA:1462,1
DA:1465,1
DA:1466,1
DA:1468,1
DA:1469,1
DA:1472,1
DA:1474,1
DA:1477,1
DA:1478,1
DA:1479,1
DA:1480,1
DA:1481,1
DA:1483,1
DA:1486,1
DA:1487,1
DA:1488,1
DA:1489,1
DA:1492,1
DA:1493,1
DA:1494,1
DA:1495,1
DA:1496,1
DA:1497,1
DA:1499,1
DA:1500,1
DA:1503,1
DA:1504,1
DA:1507,1
DA:1510,1
DA:1511,1
DA:1512,1
DA:1513,1
DA:1514,1
DA:1516,1
DA:1517,1
DA:1520,1
DA:1522,1
DA:1525,1
DA:1526,1
DA:1527,1
DA:1528,1
DA:1529,1
DA:1530,1
DA:1531,1
DA:1534,1
DA:1535,1
DA:1536,1
DA:1537,1
DA:1540,1
DA:1541,1
DA:1544,1
DA:1545,1
DA:1548,1
DA:1549,1
DA:1550,1
DA:1553,1
DA:1554,1
DA:1555,1
DA:1556,1
DA:1557,1
DA:1559,1
DA:1560,1
DA:1563,1
DA:1565,1
DA:1568,1
DA:1569,1
DA:1570,1
DA:1571,1
DA:1572,1
DA:1573,1
DA:1577,1
DA:1578,1
DA:1581,1
DA:1582,1
DA:1585,1
DA:1586,1
DA:1587,1
DA:1590,1
DA:1592,1
DA:1593,1
DA:1596,1
DA:1598,1
DA:1601,1
DA:1602,1
DA:1605,1
DA:1606,1
DA:1609,1
DA:1610,1
DA:1611,1
DA:1612,1
DA:1613,1
DA:1615,1
DA:1616,1
BRF:0
BRH:0
LF:780
LH:780
end_of_record
SF:/home/nsm/code/deepbrain/superconfig/crates/superconfig/src/core/stats.rs
FN:33,_RNvMNtNtCsjGPQoqpdV0f_11superconfig4core5statsNtB2_13RegistryStats10add_memory
FN:38,_RNvMNtNtCsjGPQoqpdV0f_11superconfig4core5statsNtB2_13RegistryStats13remove_memory
FN:49,_RNvMNtNtCsjGPQoqpdV0f_11superconfig4core5statsNtB2_13RegistryStats15increment_reads
FN:43,_RNvMNtNtCsjGPQoqpdV0f_11superconfig4core5statsNtB2_13RegistryStats17increment_creates
FN:59,_RNvMNtNtCsjGPQoqpdV0f_11superconfig4core5statsNtB2_13RegistryStats17increment_deletes
FN:54,_RNvMNtNtCsjGPQoqpdV0f_11superconfig4core5statsNtB2_13RegistryStats17increment_updates
FN:23,_RNvMNtNtCsjGPQoqpdV0f_11superconfig4core5statsNtB2_13RegistryStats3new
FN:28,_RNvMNtNtCsjGPQoqpdV0f_11superconfig4core5statsNtB2_13RegistryStats5reset
FN:145,_RNvNtNtNtCsjGPQoqpdV0f_11superconfig4core5stats5testss_10test_reset
FN:111,_RNvNtNtNtCsjGPQoqpdV0f_11superconfig4core5stats5testss_20test_memory_tracking
FN:86,_RNvNtNtNtCsjGPQoqpdV0f_11superconfig4core5stats5testss_21test_stats_operations
FN:129,_RNvNtNtNtCsjGPQoqpdV0f_11superconfig4core5stats5testss_24test_overflow_protection
FN:70,_RNvNtNtNtCsjGPQoqpdV0f_11superconfig4core5stats5testss_26test_stats_new_and_default
FNDA:1539,_RNvMNtNtCsjGPQoqpdV0f_11superconfig4core5statsNtB2_13RegistryStats10add_memory
FNDA:855,_RNvMNtNtCsjGPQoqpdV0f_11superconfig4core5statsNtB2_13RegistryStats13remove_memory
FNDA:1029,_RNvMNtNtCsjGPQoqpdV0f_11superconfig4core5statsNtB2_13RegistryStats15increment_reads
FNDA:1033,_RNvMNtNtCsjGPQoqpdV0f_11superconfig4core5statsNtB2_13RegistryStats17increment_creates
FNDA:349,_RNvMNtNtCsjGPQoqpdV0f_11superconfig4core5statsNtB2_13RegistryStats17increment_deletes
FNDA:506,_RNvMNtNtCsjGPQoqpdV0f_11superconfig4core5statsNtB2_13RegistryStats17increment_updates
FNDA:5,_RNvMNtNtCsjGPQoqpdV0f_11superconfig4core5statsNtB2_13RegistryStats3new
FNDA:2,_RNvMNtNtCsjGPQoqpdV0f_11superconfig4core5statsNtB2_13RegistryStats5reset
FNDA:1,_RNvNtNtNtCsjGPQoqpdV0f_11superconfig4core5stats5testss_10test_reset
FNDA:1,_RNvNtNtNtCsjGPQoqpdV0f_11superconfig4core5stats5testss_20test_memory_tracking
FNDA:1,_RNvNtNtNtCsjGPQoqpdV0f_11superconfig4core5stats5testss_21test_stats_operations
FNDA:1,_RNvNtNtNtCsjGPQoqpdV0f_11superconfig4core5stats5testss_24test_overflow_protection
FNDA:1,_RNvNtNtNtCsjGPQoqpdV0f_11superconfig4core5stats5testss_26test_stats_new_and_default
FNF:13
FNH:13
DA:23,5
DA:24,5
DA:25,5
DA:28,2
DA:29,2
DA:30,2
DA:33,1539
DA:34,1539
DA:35,1539
DA:38,855
DA:39,855
DA:40,855
DA:43,1033
DA:44,1033
DA:45,1033
DA:46,1033
DA:49,1029
DA:50,1029
DA:51,1029
DA:54,506
DA:55,506
DA:56,506
DA:59,349
DA:60,349
DA:61,349
DA:62,349
DA:70,1
DA:71,1
DA:72,1
DA:74,1
DA:75,1
DA:76,1
DA:77,1
DA:78,1
DA:79,1
DA:81,1
DA:82,1
DA:83,1
DA:86,1
DA:87,1
DA:90,1
DA:91,1
DA:92,1
DA:95,1
DA:96,1
DA:97,1
DA:100,1
DA:101,1
DA:102,1
DA:105,1
DA:106,1
DA:107,1
DA:108,1
DA:111,1
DA:112,1
DA:114,1
DA:115,1
DA:117,1
DA:118,1
DA:120,1
DA:121,1
DA:124,1
DA:125,1
DA:126,1
DA:129,1
DA:130,1
DA:131,1
DA:132,1
DA:133,1
DA:136,1
DA:137,1
DA:139,1
DA:140,1
DA:141,1
DA:142,1
DA:145,1
DA:146,1
DA:149,1
DA:150,1
DA:151,1
DA:153,1
DA:154,1
DA:155,1
DA:158,1
DA:160,1
DA:161,1
DA:162,1
DA:163,1
BRF:0
BRH:0
LF:88
LH:88
end_of_record